target datalayout = "e-m:e-p270:32:32-p271:32:32-p272:64:64-i64:64-i128:128-f80:128-n8:16:32:64-S128"
target triple = "x86_64-pc-linux-gnu"

%"struct.llvm::rdf::NodeAddr.65" = type <{ ptr, i32, [4 x i8] }>
%"struct.llvm::rdf::DataFlowGraph::DefStack::Iterator" = type <{ ptr, i32, [4 x i8] }>
%"struct.llvm::rdf::DataFlowGraph::DefStack" = type { %"class.std::vector.240" }
%"class.std::vector.240" = type { %"struct.std::_Vector_base.241" }
%"struct.std::_Vector_base.241" = type { %"struct.std::_Vector_base<llvm::rdf::NodeAddr<llvm::rdf::DefNode *>, std::allocator<llvm::rdf::NodeAddr<llvm::rdf::DefNode *>>>::_Vector_impl" }
%"struct.std::_Vector_base<llvm::rdf::NodeAddr<llvm::rdf::DefNode *>, std::allocator<llvm::rdf::NodeAddr<llvm::rdf::DefNode *>>>::_Vector_impl" = type { %"struct.std::_Vector_base<llvm::rdf::NodeAddr<llvm::rdf::DefNode *>, std::allocator<llvm::rdf::NodeAddr<llvm::rdf::DefNode *>>>::_Vector_impl_data" }
%"struct.std::_Vector_base<llvm::rdf::NodeAddr<llvm::rdf::DefNode *>, std::allocator<llvm::rdf::NodeAddr<llvm::rdf::DefNode *>>>::_Vector_impl_data" = type { ptr, ptr, ptr }

; Function Attrs: mustprogress nounwind uwtable
define linkonce_odr hidden noundef zeroext i1 @_ZNK4llvm3rdf13DataFlowGraph8DefStack11isDelimiterERKNS0_8NodeAddrIPNS0_7DefNodeEEEj(ptr noundef nonnull align 8 dereferenceable(24) %0, ptr noundef nonnull align 8 dereferenceable(12) %1, i32 noundef %2) #0 comdat align 2 {
  %4 = alloca ptr, align 8
  %5 = alloca ptr, align 8
  %6 = alloca i32, align 4
  store ptr %0, ptr %4, align 8
  store ptr %1, ptr %5, align 8
  store i32 %2, ptr %6, align 4
  %7 = load ptr, ptr %5, align 8
  %8 = getelementptr inbounds nuw %"struct.llvm::rdf::NodeAddr.65", ptr %7, i32 0, i32 0
  %9 = load ptr, ptr %8, align 8
  %10 = icmp eq ptr %9, null
  br i1 %10, label %11, label %22

11:                                               ; preds = %3
  %12 = load i32, ptr %6, align 4
  %13 = icmp eq i32 %12, 0
  br i1 %13, label %20, label %14

14:                                               ; preds = %11
  %15 = load ptr, ptr %5, align 8
  %16 = getelementptr inbounds nuw %"struct.llvm::rdf::NodeAddr.65", ptr %15, i32 0, i32 1
  %17 = load i32, ptr %16, align 8
  %18 = load i32, ptr %6, align 4
  %19 = icmp eq i32 %17, %18
  br label %20

20:                                               ; preds = %14, %11
  %21 = phi i1 [ true, %11 ], [ %19, %14 ]
  br label %22

22:                                               ; preds = %20, %3
  %23 = phi i1 [ false, %3 ], [ %21, %20 ]
  ret i1 %23
}

; Function Attrs: mustprogress nounwind uwtable
define linkonce_odr hidden noundef nonnull align 8 dereferenceable(12) ptr @_ZNKSt6vectorIN4llvm3rdf8NodeAddrIPNS1_7DefNodeEEESaIS5_EEixEm(ptr noundef nonnull align 8 dereferenceable(24) %0, i64 noundef %1) #0 comdat align 2 {
  %3 = alloca ptr, align 8
  %4 = alloca i64, align 8
  store ptr %0, ptr %3, align 8
  store i64 %1, ptr %4, align 8
  %5 = load ptr, ptr %3, align 8
  %6 = getelementptr inbounds nuw %"struct.std::_Vector_base.241", ptr %5, i32 0, i32 0
  %7 = getelementptr inbounds nuw %"struct.std::_Vector_base<llvm::rdf::NodeAddr<llvm::rdf::DefNode *>, std::allocator<llvm::rdf::NodeAddr<llvm::rdf::DefNode *>>>::_Vector_impl_data", ptr %6, i32 0, i32 0
  %8 = load ptr, ptr %7, align 8
  %9 = load i64, ptr %4, align 8
  %10 = getelementptr inbounds %"struct.llvm::rdf::NodeAddr.65", ptr %8, i64 %9
  ret ptr %10
}

; Function Attrs: mustprogress nounwind uwtable
define linkonce_odr hidden noundef i64 @_ZNKSt6vectorIN4llvm3rdf8NodeAddrIPNS1_7DefNodeEEESaIS5_EE4sizeEv(ptr noundef nonnull align 8 dereferenceable(24) %0) #0 comdat align 2 {
  %2 = alloca ptr, align 8
  store ptr %0, ptr %2, align 8
  %3 = load ptr, ptr %2, align 8
  %4 = getelementptr inbounds nuw %"struct.std::_Vector_base.241", ptr %3, i32 0, i32 0
  %5 = getelementptr inbounds nuw %"struct.std::_Vector_base<llvm::rdf::NodeAddr<llvm::rdf::DefNode *>, std::allocator<llvm::rdf::NodeAddr<llvm::rdf::DefNode *>>>::_Vector_impl_data", ptr %4, i32 0, i32 1
  %6 = load ptr, ptr %5, align 8
  %7 = getelementptr inbounds nuw %"struct.std::_Vector_base.241", ptr %3, i32 0, i32 0
  %8 = getelementptr inbounds nuw %"struct.std::_Vector_base<llvm::rdf::NodeAddr<llvm::rdf::DefNode *>, std::allocator<llvm::rdf::NodeAddr<llvm::rdf::DefNode *>>>::_Vector_impl_data", ptr %7, i32 0, i32 0
  %9 = load ptr, ptr %8, align 8
  %10 = ptrtoint ptr %6 to i64
  %11 = ptrtoint ptr %9 to i64
  %12 = sub i64 %10, %11
  %13 = sdiv exact i64 %12, 16
  ret i64 %13
}

; Function Attrs: mustprogress nounwind uwtable
define dso_local void @_ZN4llvm3rdf13DataFlowGraph8DefStack8IteratorC2ERKS2_b(ptr noundef nonnull align 8 dereferenceable(12) %0, ptr noundef nonnull align 8 dereferenceable(24) %1, i1 noundef zeroext %2) unnamed_addr #0 align 2 {
  %4 = alloca ptr, align 8
  %5 = alloca ptr, align 8
  %6 = alloca i8, align 1
  store ptr %0, ptr %4, align 8
  store ptr %1, ptr %5, align 8
  %7 = zext i1 %2 to i8
  store i8 %7, ptr %6, align 1
  %8 = load ptr, ptr %4, align 8
  %9 = getelementptr inbounds nuw %"struct.llvm::rdf::DataFlowGraph::DefStack::Iterator", ptr %8, i32 0, i32 0
  %10 = load ptr, ptr %5, align 8
  store ptr %10, ptr %9, align 8
  %11 = load i8, ptr %6, align 1
  %12 = trunc i8 %11 to i1
  br i1 %12, label %15, label %13

13:                                               ; preds = %3
  %14 = getelementptr inbounds nuw %"struct.llvm::rdf::DataFlowGraph::DefStack::Iterator", ptr %8, i32 0, i32 1
  store i32 0, ptr %14, align 8
  br label %44

15:                                               ; preds = %3
  %16 = getelementptr inbounds nuw %"struct.llvm::rdf::DataFlowGraph::DefStack::Iterator", ptr %8, i32 0, i32 0
  %17 = load ptr, ptr %16, align 8
  %18 = getelementptr inbounds nuw %"struct.llvm::rdf::DataFlowGraph::DefStack", ptr %17, i32 0, i32 0
  %19 = call noundef i64 @_ZNKSt6vectorIN4llvm3rdf8NodeAddrIPNS1_7DefNodeEEESaIS5_EE4sizeEv(ptr noundef nonnull align 8 dereferenceable(24) %18) #11
  %20 = trunc i64 %19 to i32
  %21 = getelementptr inbounds nuw %"struct.llvm::rdf::DataFlowGraph::DefStack::Iterator", ptr %8, i32 0, i32 1
  store i32 %20, ptr %21, align 8
  br label %22

22:                                               ; preds = %40, %15
  %23 = getelementptr inbounds nuw %"struct.llvm::rdf::DataFlowGraph::DefStack::Iterator", ptr %8, i32 0, i32 1
  %24 = load i32, ptr %23, align 8
  %25 = icmp ugt i32 %24, 0
  br i1 %25, label %26, label %38

26:                                               ; preds = %22
  %27 = getelementptr inbounds nuw %"struct.llvm::rdf::DataFlowGraph::DefStack::Iterator", ptr %8, i32 0, i32 0
  %28 = load ptr, ptr %27, align 8
  %29 = getelementptr inbounds nuw %"struct.llvm::rdf::DataFlowGraph::DefStack::Iterator", ptr %8, i32 0, i32 0
  %30 = load ptr, ptr %29, align 8
  %31 = getelementptr inbounds nuw %"struct.llvm::rdf::DataFlowGraph::DefStack", ptr %30, i32 0, i32 0
  %32 = getelementptr inbounds nuw %"struct.llvm::rdf::DataFlowGraph::DefStack::Iterator", ptr %8, i32 0, i32 1
  %33 = load i32, ptr %32, align 8
  %34 = sub i32 %33, 1
  %35 = zext i32 %34 to i64
  %36 = call noundef nonnull align 8 dereferenceable(12) ptr @_ZNKSt6vectorIN4llvm3rdf8NodeAddrIPNS1_7DefNodeEEESaIS5_EEixEm(ptr noundef nonnull align 8 dereferenceable(24) %31, i64 noundef %35) #11
  %37 = call noundef zeroext i1 @_ZNK4llvm3rdf13DataFlowGraph8DefStack11isDelimiterERKNS0_8NodeAddrIPNS0_7DefNodeEEEj(ptr noundef nonnull align 8 dereferenceable(24) %28, ptr noundef nonnull align 8 dereferenceable(12) %36, i32 noundef 0)
  br label %38

38:                                               ; preds = %26, %22
  %39 = phi i1 [ false, %22 ], [ %37, %26 ]
  br i1 %39, label %40, label %44

40:                                               ; preds = %38
  %41 = getelementptr inbounds nuw %"struct.llvm::rdf::DataFlowGraph::DefStack::Iterator", ptr %8, i32 0, i32 1
  %42 = load i32, ptr %41, align 8
  %43 = add i32 %42, -1
  store i32 %43, ptr %41, align 8
  br label %22, !llvm.loop !13

44:                                               ; preds = %38, %13
  ret void
}