; Function Attrs: mustprogress nofree norecurse nosync nounwind memory(read, argmem: readwrite, inaccessiblemem: none) uwtable
define dso_local void @_ZN4llvm3rdf13DataFlowGraph8DefStack8IteratorC2ERKS2_b(ptr noundef nonnull writeonly align 8 captures(none) dereferenceable(12) initializes((0, 12)) %0, ptr noundef nonnull align 8 dereferenceable(24) %1, i1 noundef zeroext %2) unnamed_addr #9 align 2 {
  store ptr %1, ptr %0, align 8
  br i1 %2, label %6, label %4

4:                                                ; preds = %3
  %5 = getelementptr inbounds nuw i8, ptr %0, i64 8
  store i32 0, ptr %5, align 8
  br label %.critedge

6:                                                ; preds = %3
  %7 = getelementptr inbounds nuw i8, ptr %1, i64 8
  %8 = load ptr, ptr %7, align 8
  %9 = load ptr, ptr %1, align 8
  %10 = ptrtoint ptr %8 to i64
  %11 = ptrtoint ptr %9 to i64
  %12 = sub i64 %10, %11
  %13 = lshr i64 %12, 4
  %14 = getelementptr inbounds nuw i8, ptr %0, i64 8
  %15 = and i64 %13, 4294967295
  br label %16

16:                                               ; preds = %18, %6
  %indvars.iv = phi i64 [ %19, %18 ], [ %15, %6 ]
  %17 = trunc nuw i64 %indvars.iv to i32
  store i32 %17, ptr %14, align 8
  %.not = icmp eq i64 %indvars.iv, 0
  br i1 %.not, label %.critedge, label %18

18:                                               ; preds = %16
  %19 = add nsw i64 %indvars.iv, -1
  %20 = load ptr, ptr %1, align 8
  %21 = getelementptr inbounds nuw %"struct.llvm::rdf::NodeAddr.65", ptr %20, i64 %19
  %22 = load ptr, ptr %21, align 8
  %23 = icmp eq ptr %22, null
  br i1 %23, label %16, label %.critedge, !llvm.loop !26

.critedge:                                        ; preds = %18, %16, %4
  ret void
}